; ModuleID = '31/266.c'
source_filename = "31/266.c"
target datalayout = "e-m:e-p270:32:32-p271:32:32-p272:64:64-i64:64-f80:128-n8:16:32:64-S128"
target triple = "x86_64-pc-linux-gnu"

%struct.student = type { [10 x i8], [30 x i8], i8, [3 x i8], [6 x i8], [15 x i8], %struct.student*, %struct.student* }

@n = common dso_local global i32 0, align 4
@.str = private unnamed_addr constant [4 x i8] c"%s \00", align 1
@.str.1 = private unnamed_addr constant [15 x i8] c"%s %c %s %s %s\00", align 1
@.str.2 = private unnamed_addr constant [3 x i8] c"%s\00", align 1
@.str.3 = private unnamed_addr constant [19 x i8] c"%s %s %c %s %s %s\0A\00", align 1

; Function Attrs: noinline nounwind uwtable
define dso_local %struct.student* @creat() #0 {
  %1 = alloca %struct.student*, align 8
  %2 = alloca %struct.student*, align 8
  %3 = alloca %struct.student*, align 8
  %4 = alloca %struct.student*, align 8
  store i32 0, i32* @n, align 4
  %5 = call noalias i8* @malloc(i64 100) #3
  %6 = bitcast i8* %5 to %struct.student*
  store %struct.student* %6, %struct.student** %4, align 8
  store %struct.student* %6, %struct.student** %3, align 8
  store %struct.student* null, %struct.student** %1, align 8
  %7 = load %struct.student*, %struct.student** %3, align 8
  %8 = getelementptr inbounds %struct.student, %struct.student* %7, i32 0, i32 0
  %9 = call i32 (i8*, ...) @__isoc99_scanf(i8* getelementptr inbounds ([4 x i8], [4 x i8]* @.str, i64 0, i64 0), [10 x i8]* %8)
  br label %10

10:                                               ; preds = %44, %0
  %11 = load %struct.student*, %struct.student** %3, align 8
  %12 = getelementptr inbounds %struct.student, %struct.student* %11, i32 0, i32 1
  %13 = load %struct.student*, %struct.student** %3, align 8
  %14 = getelementptr inbounds %struct.student, %struct.student* %13, i32 0, i32 2
  %15 = load %struct.student*, %struct.student** %3, align 8
  %16 = getelementptr inbounds %struct.student, %struct.student* %15, i32 0, i32 3
  %17 = load %struct.student*, %struct.student** %3, align 8
  %18 = getelementptr inbounds %struct.student, %struct.student* %17, i32 0, i32 4
  %19 = load %struct.student*, %struct.student** %3, align 8
  %20 = getelementptr inbounds %struct.student, %struct.student* %19, i32 0, i32 5
  %21 = call i32 (i8*, ...) @__isoc99_scanf(i8* getelementptr inbounds ([15 x i8], [15 x i8]* @.str.1, i64 0, i64 0), [30 x i8]* %12, i8* %14, [3 x i8]* %16, [6 x i8]* %18, [15 x i8]* %20)
  %22 = load i32, i32* @n, align 4
  %23 = add nsw i32 %22, 1
  store i32 %23, i32* @n, align 4
  %24 = load i32, i32* @n, align 4
  %25 = icmp eq i32 %24, 1
  br i1 %25, label %26, label %30

26:                                               ; preds = %10
  %27 = load %struct.student*, %struct.student** %3, align 8
  store %struct.student* %27, %struct.student** %1, align 8
  %28 = load %struct.student*, %struct.student** %3, align 8
  %29 = getelementptr inbounds %struct.student, %struct.student* %28, i32 0, i32 7
  store %struct.student* null, %struct.student** %29, align 8
  br label %38

30:                                               ; preds = %10
  %31 = load %struct.student*, %struct.student** %3, align 8
  %32 = load %struct.student*, %struct.student** %4, align 8
  %33 = getelementptr inbounds %struct.student, %struct.student* %32, i32 0, i32 6
  store %struct.student* %31, %struct.student** %33, align 8
  %34 = load %struct.student*, %struct.student** %4, align 8
  %35 = load %struct.student*, %struct.student** %3, align 8
  %36 = getelementptr inbounds %struct.student, %struct.student* %35, i32 0, i32 7
  store %struct.student* %34, %struct.student** %36, align 8
  %37 = load %struct.student*, %struct.student** %3, align 8
  store %struct.student* %37, %struct.student** %4, align 8
  br label %38

38:                                               ; preds = %30, %26
  %39 = call noalias i8* @malloc(i64 100) #3
  %40 = bitcast i8* %39 to %struct.student*
  store %struct.student* %40, %struct.student** %3, align 8
  %41 = load %struct.student*, %struct.student** %3, align 8
  %42 = getelementptr inbounds %struct.student, %struct.student* %41, i32 0, i32 0
  %43 = call i32 (i8*, ...) @__isoc99_scanf(i8* getelementptr inbounds ([3 x i8], [3 x i8]* @.str.2, i64 0, i64 0), [10 x i8]* %42)
  br label %44

44:                                               ; preds = %38
  %45 = load %struct.student*, %struct.student** %3, align 8
  %46 = getelementptr inbounds %struct.student, %struct.student* %45, i32 0, i32 0
  %47 = getelementptr inbounds [10 x i8], [10 x i8]* %46, i64 0, i64 0
  %48 = load i8, i8* %47, align 8
  %49 = sext i8 %48 to i32
  %50 = icmp ne i32 %49, 101
  br i1 %50, label %10, label %51

51:                                               ; preds = %44
  %52 = load %struct.student*, %struct.student** %4, align 8
  store %struct.student* %52, %struct.student** %2, align 8
  %53 = load %struct.student*, %struct.student** %4, align 8
  %54 = getelementptr inbounds %struct.student, %struct.student* %53, i32 0, i32 6
  store %struct.student* null, %struct.student** %54, align 8
  %55 = load %struct.student*, %struct.student** %2, align 8
  ret %struct.student* %55
}

; Function Attrs: nounwind
declare dso_local noalias i8* @malloc(i64) #1

declare dso_local i32 @__isoc99_scanf(i8*, ...) #2

; Function Attrs: noinline nounwind uwtable
define dso_local void @main() #0 {
  %1 = alloca %struct.student*, align 8
  %2 = call %struct.student* @creat()
  store %struct.student* %2, %struct.student** %1, align 8
  br label %3

3:                                                ; preds = %27, %0
  %4 = load %struct.student*, %struct.student** %1, align 8
  %5 = getelementptr inbounds %struct.student, %struct.student* %4, i32 0, i32 0
  %6 = getelementptr inbounds [10 x i8], [10 x i8]* %5, i64 0, i64 0
  %7 = load %struct.student*, %struct.student** %1, align 8
  %8 = getelementptr inbounds %struct.student, %struct.student* %7, i32 0, i32 1
  %9 = getelementptr inbounds [30 x i8], [30 x i8]* %8, i64 0, i64 0
  %10 = load %struct.student*, %struct.student** %1, align 8
  %11 = getelementptr inbounds %struct.student, %struct.student* %10, i32 0, i32 2
  %12 = load i8, i8* %11, align 8
  %13 = sext i8 %12 to i32
  %14 = load %struct.student*, %struct.student** %1, align 8
  %15 = getelementptr inbounds %struct.student, %struct.student* %14, i32 0, i32 3
  %16 = getelementptr inbounds [3 x i8], [3 x i8]* %15, i64 0, i64 0
  %17 = load %struct.student*, %struct.student** %1, align 8
  %18 = getelementptr inbounds %struct.student, %struct.student* %17, i32 0, i32 4
  %19 = getelementptr inbounds [6 x i8], [6 x i8]* %18, i64 0, i64 0
  %20 = load %struct.student*, %struct.student** %1, align 8
  %21 = getelementptr inbounds %struct.student, %struct.student* %20, i32 0, i32 5
  %22 = getelementptr inbounds [15 x i8], [15 x i8]* %21, i64 0, i64 0
  %23 = call i32 (i8*, ...) @printf(i8* getelementptr inbounds ([19 x i8], [19 x i8]* @.str.3, i64 0, i64 0), i8* %6, i8* %9, i32 %13, i8* %16, i8* %19, i8* %22)
  %24 = load %struct.student*, %struct.student** %1, align 8
  %25 = getelementptr inbounds %struct.student, %struct.student* %24, i32 0, i32 7
  %26 = load %struct.student*, %struct.student** %25, align 8
  store %struct.student* %26, %struct.student** %1, align 8
  br label %27

27:                                               ; preds = %3
  %28 = load %struct.student*, %struct.student** %1, align 8
  %29 = icmp ne %struct.student* %28, null
  br i1 %29, label %3, label %30

30:                                               ; preds = %27
  ret void
}

declare dso_local i32 @printf(i8*, ...) #2


!llvm.module.flags = !{!0}
!llvm.ident = !{!1}

!0 = !{i32 1, !"wchar_size", i32 4}
!1 = !{!"clang version 10.0.0-4ubuntu1 "}
