; ModuleID = 'source-C-CXX/30/266.c'
source_filename = "source-C-CXX/30/266.c"
target datalayout = "e-m:e-p270:32:32-p271:32:32-p272:64:64-i64:64-f80:128-n8:16:32:64-S128"
target triple = "x86_64-pc-linux-gnu"

%struct.student = type { [10 x i8], [30 x i8], i8, [3 x i8], [6 x i8], [15 x i8], %struct.student*, %struct.student* }

@n = dso_local local_unnamed_addr global i32 0, align 4
@.str = private unnamed_addr constant [4 x i8] c"%s \00", align 1
@.str.1 = private unnamed_addr constant [15 x i8] c"%s %c %s %s %s\00", align 1
@.str.2 = private unnamed_addr constant [3 x i8] c"%s\00", align 1
@.str.3 = private unnamed_addr constant [19 x i8] c"%s %s %c %s %s %s\0A\00", align 1

; Function Attrs: nofree nounwind sspstrong uwtable
define dso_local %struct.student* @creat() local_unnamed_addr #0 {
  store i32 0, i32* @n, align 4, !tbaa !5
  %1 = tail call noalias align 16 dereferenceable_or_null(100) i8* @malloc(i64 100) #3
  %2 = bitcast i8* %1 to %struct.student*
  %3 = getelementptr inbounds %struct.student, %struct.student* %2, i64 0, i32 0
  %4 = tail call i32 (i8*, ...) @__isoc99_scanf(i8* getelementptr inbounds ([4 x i8], [4 x i8]* @.str, i64 0, i64 0), [10 x i8]* %3)
  br label %5

5:                                                ; preds = %19, %0
  %6 = phi %struct.student* [ %2, %0 ], [ %24, %19 ]
  %7 = phi %struct.student* [ %2, %0 ], [ %21, %19 ]
  %8 = getelementptr inbounds %struct.student, %struct.student* %6, i64 0, i32 1
  %9 = getelementptr inbounds %struct.student, %struct.student* %6, i64 0, i32 2
  %10 = getelementptr inbounds %struct.student, %struct.student* %6, i64 0, i32 3
  %11 = getelementptr inbounds %struct.student, %struct.student* %6, i64 0, i32 4
  %12 = getelementptr inbounds %struct.student, %struct.student* %6, i64 0, i32 5
  %13 = tail call i32 (i8*, ...) @__isoc99_scanf(i8* getelementptr inbounds ([15 x i8], [15 x i8]* @.str.1, i64 0, i64 0), [30 x i8]* nonnull %8, i8* nonnull %9, [3 x i8]* nonnull %10, [6 x i8]* nonnull %11, [15 x i8]* nonnull %12)
  %14 = load i32, i32* @n, align 4, !tbaa !5
  %15 = add nsw i32 %14, 1
  store i32 %15, i32* @n, align 4, !tbaa !5
  %16 = icmp eq i32 %14, 0
  br i1 %16, label %19, label %17

17:                                               ; preds = %5
  %18 = getelementptr inbounds %struct.student, %struct.student* %7, i64 0, i32 6
  store %struct.student* %6, %struct.student** %18, align 8, !tbaa !9
  br label %19

19:                                               ; preds = %5, %17
  %20 = phi %struct.student* [ %7, %17 ], [ null, %5 ]
  %21 = phi %struct.student* [ %6, %17 ], [ %7, %5 ]
  %22 = getelementptr inbounds %struct.student, %struct.student* %6, i64 0, i32 7
  store %struct.student* %20, %struct.student** %22, align 8
  %23 = tail call noalias align 16 dereferenceable_or_null(100) i8* @malloc(i64 100) #3
  %24 = bitcast i8* %23 to %struct.student*
  %25 = getelementptr inbounds %struct.student, %struct.student* %24, i64 0, i32 0
  %26 = tail call i32 (i8*, ...) @__isoc99_scanf(i8* getelementptr inbounds ([3 x i8], [3 x i8]* @.str.2, i64 0, i64 0), [10 x i8]* %25)
  %27 = getelementptr inbounds %struct.student, %struct.student* %24, i64 0, i32 0, i64 0
  %28 = load i8, i8* %27, align 16, !tbaa !12
  %29 = icmp eq i8 %28, 101
  br i1 %29, label %30, label %5, !llvm.loop !13

30:                                               ; preds = %19
  %31 = getelementptr inbounds %struct.student, %struct.student* %21, i64 0, i32 6
  store %struct.student* null, %struct.student** %31, align 8, !tbaa !9
  ret %struct.student* %21
}

; Function Attrs: inaccessiblememonly mustprogress nofree nounwind willreturn
declare noalias noundef align 16 i8* @malloc(i64 noundef) local_unnamed_addr #1

; Function Attrs: nofree nounwind
declare noundef i32 @__isoc99_scanf(i8* nocapture noundef readonly, ...) local_unnamed_addr #2

; Function Attrs: nofree nounwind sspstrong uwtable
define dso_local void @main() local_unnamed_addr #0 {
  store i32 0, i32* @n, align 4, !tbaa !5
  %1 = tail call noalias align 16 dereferenceable_or_null(100) i8* @malloc(i64 100) #3
  %2 = bitcast i8* %1 to %struct.student*
  %3 = getelementptr inbounds %struct.student, %struct.student* %2, i64 0, i32 0
  %4 = tail call i32 (i8*, ...) @__isoc99_scanf(i8* getelementptr inbounds ([4 x i8], [4 x i8]* @.str, i64 0, i64 0), [10 x i8]* %3) #3
  br label %5

5:                                                ; preds = %19, %0
  %6 = phi %struct.student* [ %2, %0 ], [ %24, %19 ]
  %7 = phi %struct.student* [ %2, %0 ], [ %21, %19 ]
  %8 = getelementptr inbounds %struct.student, %struct.student* %6, i64 0, i32 1
  %9 = getelementptr inbounds %struct.student, %struct.student* %6, i64 0, i32 2
  %10 = getelementptr inbounds %struct.student, %struct.student* %6, i64 0, i32 3
  %11 = getelementptr inbounds %struct.student, %struct.student* %6, i64 0, i32 4
  %12 = getelementptr inbounds %struct.student, %struct.student* %6, i64 0, i32 5
  %13 = tail call i32 (i8*, ...) @__isoc99_scanf(i8* getelementptr inbounds ([15 x i8], [15 x i8]* @.str.1, i64 0, i64 0), [30 x i8]* nonnull %8, i8* nonnull %9, [3 x i8]* nonnull %10, [6 x i8]* nonnull %11, [15 x i8]* nonnull %12) #3
  %14 = load i32, i32* @n, align 4, !tbaa !5
  %15 = add nsw i32 %14, 1
  store i32 %15, i32* @n, align 4, !tbaa !5
  %16 = icmp eq i32 %14, 0
  br i1 %16, label %19, label %17

17:                                               ; preds = %5
  %18 = getelementptr inbounds %struct.student, %struct.student* %7, i64 0, i32 6
  store %struct.student* %6, %struct.student** %18, align 8, !tbaa !9
  br label %19

19:                                               ; preds = %17, %5
  %20 = phi %struct.student* [ %7, %17 ], [ null, %5 ]
  %21 = phi %struct.student* [ %6, %17 ], [ %7, %5 ]
  %22 = getelementptr inbounds %struct.student, %struct.student* %6, i64 0, i32 7
  store %struct.student* %20, %struct.student** %22, align 8
  %23 = tail call noalias align 16 dereferenceable_or_null(100) i8* @malloc(i64 100) #3
  %24 = bitcast i8* %23 to %struct.student*
  %25 = getelementptr inbounds %struct.student, %struct.student* %24, i64 0, i32 0
  %26 = tail call i32 (i8*, ...) @__isoc99_scanf(i8* getelementptr inbounds ([3 x i8], [3 x i8]* @.str.2, i64 0, i64 0), [10 x i8]* %25) #3
  %27 = getelementptr inbounds %struct.student, %struct.student* %24, i64 0, i32 0, i64 0
  %28 = load i8, i8* %27, align 16, !tbaa !12
  %29 = icmp eq i8 %28, 101
  br i1 %29, label %30, label %5, !llvm.loop !13

30:                                               ; preds = %19
  %31 = getelementptr inbounds %struct.student, %struct.student* %21, i64 0, i32 6
  store %struct.student* null, %struct.student** %31, align 8, !tbaa !9
  br label %32

32:                                               ; preds = %32, %30
  %33 = phi %struct.student* [ %21, %30 ], [ %44, %32 ]
  %34 = getelementptr inbounds %struct.student, %struct.student* %33, i64 0, i32 0, i64 0
  %35 = getelementptr inbounds %struct.student, %struct.student* %33, i64 0, i32 1, i64 0
  %36 = getelementptr inbounds %struct.student, %struct.student* %33, i64 0, i32 2
  %37 = load i8, i8* %36, align 8, !tbaa !15
  %38 = sext i8 %37 to i32
  %39 = getelementptr inbounds %struct.student, %struct.student* %33, i64 0, i32 3, i64 0
  %40 = getelementptr inbounds %struct.student, %struct.student* %33, i64 0, i32 4, i64 0
  %41 = getelementptr inbounds %struct.student, %struct.student* %33, i64 0, i32 5, i64 0
  %42 = tail call i32 (i8*, ...) @printf(i8* nonnull dereferenceable(1) getelementptr inbounds ([19 x i8], [19 x i8]* @.str.3, i64 0, i64 0), i8* %34, i8* nonnull %35, i32 %38, i8* nonnull %39, i8* nonnull %40, i8* nonnull %41)
  %43 = getelementptr inbounds %struct.student, %struct.student* %33, i64 0, i32 7
  %44 = load %struct.student*, %struct.student** %43, align 8, !tbaa !16
  %45 = icmp eq %struct.student* %44, null
  br i1 %45, label %46, label %32, !llvm.loop !17

46:                                               ; preds = %32
  ret void
}

; Function Attrs: nofree nounwind
declare noundef i32 @printf(i8* nocapture noundef readonly, ...) local_unnamed_addr #2


!llvm.module.flags = !{!0, !1, !2, !3}
!llvm.ident = !{!4}

!0 = !{i32 1, !"wchar_size", i32 4}
!1 = !{i32 7, !"PIC Level", i32 2}
!2 = !{i32 7, !"PIE Level", i32 2}
!3 = !{i32 7, !"uwtable", i32 1}
!4 = !{!"clang version 13.0.0"}
!5 = !{!6, !6, i64 0}
!6 = !{!"int", !7, i64 0}
!7 = !{!"omnipotent char", !8, i64 0}
!8 = !{!"Simple C/C++ TBAA"}
!9 = !{!10, !11, i64 72}
!10 = !{!"student", !7, i64 0, !7, i64 10, !7, i64 40, !7, i64 41, !7, i64 44, !7, i64 50, !11, i64 72, !11, i64 80}
!11 = !{!"any pointer", !7, i64 0}
!12 = !{!7, !7, i64 0}
!13 = distinct !{!13, !14}
!14 = !{!"llvm.loop.mustprogress"}
!15 = !{!10, !7, i64 40}
!16 = !{!10, !11, i64 80}
!17 = distinct !{!17, !14}
